target datalayout = "e-m:e-p270:32:32-p271:32:32-p272:64:64-i64:64-i128:128-f80:128-n8:16:32:64-S128"
target triple = "x86_64-pc-linux-gnu"

%struct.Ivy_Store_t_ = type { i32, i32, i32, i32, [256 x %struct.Ivy_Cut_t_] }
%struct.Ivy_Cut_t_ = type { i32, i16, i16, [6 x i32], i32 }

; Function Attrs: nounwind uwtable
define void @Ivy_CutCompactAll(ptr noundef %0) #0 {
  %2 = alloca ptr, align 8
  %3 = alloca ptr, align 8
  %4 = alloca i32, align 4
  %5 = alloca i32, align 4
  store ptr %0, ptr %2, align 8, !tbaa !42
  call void @llvm.lifetime.start.p0(i64 8, ptr %3) #10
  call void @llvm.lifetime.start.p0(i64 4, ptr %4) #10
  call void @llvm.lifetime.start.p0(i64 4, ptr %5) #10
  %6 = load ptr, ptr %2, align 8, !tbaa !42
  %7 = getelementptr inbounds nuw %struct.Ivy_Store_t_, ptr %6, i32 0, i32 1
  store i32 0, ptr %7, align 4, !tbaa !89
  store i32 0, ptr %5, align 4, !tbaa !8
  store i32 0, ptr %4, align 4, !tbaa !8
  br label %8

8:                                                ; preds = %50, %1
  %9 = load i32, ptr %4, align 4, !tbaa !8
  %10 = load ptr, ptr %2, align 8, !tbaa !42
  %11 = getelementptr inbounds nuw %struct.Ivy_Store_t_, ptr %10, i32 0, i32 0
  %12 = load i32, ptr %11, align 4, !tbaa !45
  %13 = icmp slt i32 %9, %12
  br i1 %13, label %14, label %53

14:                                               ; preds = %8
  %15 = load ptr, ptr %2, align 8, !tbaa !42
  %16 = getelementptr inbounds nuw %struct.Ivy_Store_t_, ptr %15, i32 0, i32 4
  %17 = getelementptr inbounds [256 x %struct.Ivy_Cut_t_], ptr %16, i64 0, i64 0
  %18 = load i32, ptr %4, align 4, !tbaa !8
  %19 = sext i32 %18 to i64
  %20 = getelementptr inbounds %struct.Ivy_Cut_t_, ptr %17, i64 %19
  store ptr %20, ptr %3, align 8, !tbaa !47
  %21 = load ptr, ptr %3, align 8, !tbaa !47
  %22 = getelementptr inbounds nuw %struct.Ivy_Cut_t_, ptr %21, i32 0, i32 1
  %23 = load i16, ptr %22, align 4, !tbaa !49
  %24 = sext i16 %23 to i32
  %25 = icmp eq i32 %24, 0
  br i1 %25, label %26, label %27

26:                                               ; preds = %14
  br label %50

27:                                               ; preds = %14
  %28 = load ptr, ptr %3, align 8, !tbaa !47
  %29 = getelementptr inbounds nuw %struct.Ivy_Cut_t_, ptr %28, i32 0, i32 1
  %30 = load i16, ptr %29, align 4, !tbaa !49
  %31 = sext i16 %30 to i32
  %32 = load ptr, ptr %3, align 8, !tbaa !47
  %33 = getelementptr inbounds nuw %struct.Ivy_Cut_t_, ptr %32, i32 0, i32 2
  %34 = load i16, ptr %33, align 2, !tbaa !90
  %35 = sext i16 %34 to i32
  %36 = icmp slt i32 %31, %35
  br i1 %36, label %37, label %42

37:                                               ; preds = %27
  %38 = load ptr, ptr %2, align 8, !tbaa !42
  %39 = getelementptr inbounds nuw %struct.Ivy_Store_t_, ptr %38, i32 0, i32 1
  %40 = load i32, ptr %39, align 4, !tbaa !89
  %41 = add nsw i32 %40, 1
  store i32 %41, ptr %39, align 4, !tbaa !89
  br label %42

42:                                               ; preds = %37, %27
  %43 = load ptr, ptr %2, align 8, !tbaa !42
  %44 = getelementptr inbounds nuw %struct.Ivy_Store_t_, ptr %43, i32 0, i32 4
  %45 = load i32, ptr %5, align 4, !tbaa !8
  %46 = add nsw i32 %45, 1
  store i32 %46, ptr %5, align 4, !tbaa !8
  %47 = sext i32 %45 to i64
  %48 = getelementptr inbounds [256 x %struct.Ivy_Cut_t_], ptr %44, i64 0, i64 %47
  %49 = load ptr, ptr %3, align 8, !tbaa !47
  call void @llvm.memcpy.p0.p0.i64(ptr align 4 %48, ptr align 4 %49, i64 36, i1 false), !tbaa.struct !85
  br label %50

50:                                               ; preds = %42, %26
  %51 = load i32, ptr %4, align 4, !tbaa !8
  %52 = add nsw i32 %51, 1
  store i32 %52, ptr %4, align 4, !tbaa !8
  br label %8, !llvm.loop !91

53:                                               ; preds = %8
  %54 = load i32, ptr %5, align 4, !tbaa !8
  %55 = load ptr, ptr %2, align 8, !tbaa !42
  %56 = getelementptr inbounds nuw %struct.Ivy_Store_t_, ptr %55, i32 0, i32 0
  store i32 %54, ptr %56, align 4, !tbaa !45
  call void @llvm.lifetime.end.p0(i64 4, ptr %5) #10
  call void @llvm.lifetime.end.p0(i64 4, ptr %4) #10
  call void @llvm.lifetime.end.p0(i64 8, ptr %3) #10
  ret void
}