; Function Attrs: nofree norecurse nosync nounwind memory(argmem: readwrite) uwtable
define void @Ivy_CutCompactAll(ptr noundef captures(none) initializes((4, 8)) %0) local_unnamed_addr #5 {
  %2 = getelementptr inbounds nuw i8, ptr %0, i64 4
  store i32 0, ptr %2, align 4, !tbaa !111
  %3 = load i32, ptr %0, align 4, !tbaa !38
  %4 = icmp sgt i32 %3, 0
  br i1 %4, label %.lr.ph, label %._crit_edge

.lr.ph:                                           ; preds = %1
  %5 = getelementptr inbounds nuw i8, ptr %0, i64 16
  br label %6

6:                                                ; preds = %.lr.ph, %23
  %7 = phi i32 [ %3, %.lr.ph ], [ %24, %23 ]
  %indvars.iv = phi i64 [ 0, %.lr.ph ], [ %indvars.iv.next, %23 ]
  %.017 = phi i32 [ 0, %.lr.ph ], [ %.1, %23 ]
  %8 = getelementptr inbounds nuw %struct.Ivy_Cut_t_, ptr %5, i64 %indvars.iv
  %9 = getelementptr inbounds nuw i8, ptr %8, i64 4
  %10 = load i16, ptr %9, align 4, !tbaa !40
  %11 = icmp eq i16 %10, 0
  br i1 %11, label %23, label %12

12:                                               ; preds = %6
  %13 = getelementptr inbounds nuw i8, ptr %8, i64 6
  %14 = load i16, ptr %13, align 2, !tbaa !112
  %15 = icmp slt i16 %10, %14
  br i1 %15, label %16, label %19

16:                                               ; preds = %12
  %17 = load i32, ptr %2, align 4, !tbaa !111
  %18 = add nsw i32 %17, 1
  store i32 %18, ptr %2, align 4, !tbaa !111
  br label %19

19:                                               ; preds = %16, %12
  %20 = add nsw i32 %.017, 1
  %21 = sext i32 %.017 to i64
  %22 = getelementptr inbounds [256 x %struct.Ivy_Cut_t_], ptr %5, i64 0, i64 %21
  tail call void @llvm.memcpy.p0.p0.i64(ptr noundef nonnull align 4 dereferenceable(36) %22, ptr noundef nonnull align 4 dereferenceable(36) %8, i64 36, i1 false), !tbaa.struct !109
  %.pre = load i32, ptr %0, align 4, !tbaa !38
  br label %23

23:                                               ; preds = %6, %19
  %24 = phi i32 [ %7, %6 ], [ %.pre, %19 ]
  %.1 = phi i32 [ %.017, %6 ], [ %20, %19 ]
  %indvars.iv.next = add nuw nsw i64 %indvars.iv, 1
  %25 = sext i32 %24 to i64
  %26 = icmp slt i64 %indvars.iv.next, %25
  br i1 %26, label %6, label %._crit_edge, !llvm.loop !113

._crit_edge:                                      ; preds = %23, %1
  %.0.lcssa = phi i32 [ 0, %1 ], [ %.1, %23 ]
  store i32 %.0.lcssa, ptr %0, align 4, !tbaa !38
  ret void
}